target datalayout = "e-m:e-p270:32:32-p271:32:32-p272:64:64-i64:64-i128:128-f80:128-n8:16:32:64-S128"
target triple = "x86_64-pc-linux-gnu"

%struct.pm_location_t = type { ptr, ptr }
%struct.pm_node_list = type { i64, i64, ptr }
%struct.pm_node = type { i16, i16, i32, %struct.pm_location_t }
%struct.pm_array_node = type { %struct.pm_node, %struct.pm_node_list, %struct.pm_location_t, %struct.pm_location_t }

; Function Attrs: inlinehint nounwind sspstrong uwtable
define internal void @pm_node_flag_set(ptr noundef %0, i16 noundef zeroext %1) #7 {
  %3 = alloca ptr, align 8
  %4 = alloca i16, align 2
  store ptr %0, ptr %3, align 8, !tbaa !128
  store i16 %1, ptr %4, align 2, !tbaa !59
  %5 = load i16, ptr %4, align 2, !tbaa !59
  %6 = zext i16 %5 to i32
  %7 = load ptr, ptr %3, align 8, !tbaa !128
  %8 = getelementptr inbounds nuw %struct.pm_node, ptr %7, i32 0, i32 1
  %9 = load i16, ptr %8, align 2, !tbaa !222
  %10 = zext i16 %9 to i32
  %11 = or i32 %10, %6
  %12 = trunc i32 %11 to i16
  store i16 %12, ptr %8, align 2, !tbaa !222
  ret void
}

; Function Attrs: inlinehint nounwind sspstrong uwtable
define internal void @pm_node_flag_unset(ptr noundef %0, i16 noundef zeroext %1) #7 {
  %3 = alloca ptr, align 8
  %4 = alloca i16, align 2
  store ptr %0, ptr %3, align 8, !tbaa !128
  store i16 %1, ptr %4, align 2, !tbaa !59
  %5 = load i16, ptr %4, align 2, !tbaa !59
  %6 = zext i16 %5 to i32
  %7 = xor i32 %6, -1
  %8 = trunc i32 %7 to i16
  %9 = zext i16 %8 to i32
  %10 = load ptr, ptr %3, align 8, !tbaa !128
  %11 = getelementptr inbounds nuw %struct.pm_node, ptr %10, i32 0, i32 1
  %12 = load i16, ptr %11, align 2, !tbaa !222
  %13 = zext i16 %12 to i32
  %14 = and i32 %13, %9
  %15 = trunc i32 %14 to i16
  store i16 %15, ptr %11, align 2, !tbaa !222
  ret void
}

; Function Attrs: inlinehint nounwind sspstrong uwtable
define internal void @pm_array_node_elements_append(ptr noundef %0, ptr noundef %1) #7 {
  %3 = alloca ptr, align 8
  %4 = alloca ptr, align 8
  store ptr %0, ptr %3, align 8, !tbaa !338
  store ptr %1, ptr %4, align 8, !tbaa !128
  %5 = load ptr, ptr %3, align 8, !tbaa !338
  %6 = getelementptr inbounds nuw %struct.pm_array_node, ptr %5, i32 0, i32 1
  %7 = getelementptr inbounds nuw %struct.pm_node_list, ptr %6, i32 0, i32 0
  %8 = load i64, ptr %7, align 8, !tbaa !340
  %9 = icmp ne i64 %8, 0
  br i1 %9, label %25, label %10

10:                                               ; preds = %2
  %11 = load ptr, ptr %3, align 8, !tbaa !338
  %12 = getelementptr inbounds nuw %struct.pm_array_node, ptr %11, i32 0, i32 2
  %13 = getelementptr inbounds nuw %struct.pm_location_t, ptr %12, i32 0, i32 0
  %14 = load ptr, ptr %13, align 8, !tbaa !469
  %15 = icmp ne ptr %14, null
  br i1 %15, label %25, label %16

16:                                               ; preds = %10
  %17 = load ptr, ptr %4, align 8, !tbaa !128
  %18 = getelementptr inbounds nuw %struct.pm_node, ptr %17, i32 0, i32 3
  %19 = getelementptr inbounds nuw %struct.pm_location_t, ptr %18, i32 0, i32 0
  %20 = load ptr, ptr %19, align 8, !tbaa !223
  %21 = load ptr, ptr %3, align 8, !tbaa !338
  %22 = getelementptr inbounds nuw %struct.pm_array_node, ptr %21, i32 0, i32 0
  %23 = getelementptr inbounds nuw %struct.pm_node, ptr %22, i32 0, i32 3
  %24 = getelementptr inbounds nuw %struct.pm_location_t, ptr %23, i32 0, i32 0
  store ptr %20, ptr %24, align 8, !tbaa !470
  br label %25

25:                                               ; preds = %16, %10, %2
  %26 = load ptr, ptr %3, align 8, !tbaa !338
  %27 = getelementptr inbounds nuw %struct.pm_array_node, ptr %26, i32 0, i32 1
  %28 = load ptr, ptr %4, align 8, !tbaa !128
  call void @pm_node_list_append(ptr noundef %27, ptr noundef %28)
  %29 = load ptr, ptr %4, align 8, !tbaa !128
  %30 = getelementptr inbounds nuw %struct.pm_node, ptr %29, i32 0, i32 3
  %31 = getelementptr inbounds nuw %struct.pm_location_t, ptr %30, i32 0, i32 1
  %32 = load ptr, ptr %31, align 8, !tbaa !224
  %33 = load ptr, ptr %3, align 8, !tbaa !338
  %34 = getelementptr inbounds nuw %struct.pm_array_node, ptr %33, i32 0, i32 0
  %35 = getelementptr inbounds nuw %struct.pm_node, ptr %34, i32 0, i32 3
  %36 = getelementptr inbounds nuw %struct.pm_location_t, ptr %35, i32 0, i32 1
  store ptr %32, ptr %36, align 8, !tbaa !471
  %37 = load ptr, ptr %4, align 8, !tbaa !128
  %38 = getelementptr inbounds nuw %struct.pm_node, ptr %37, i32 0, i32 0
  %39 = load i16, ptr %38, align 8, !tbaa !206
  %40 = zext i16 %39 to i32
  %41 = icmp eq i32 %40, 6
  br i1 %41, label %61, label %42

42:                                               ; preds = %25
  %43 = load ptr, ptr %4, align 8, !tbaa !128
  %44 = getelementptr inbounds nuw %struct.pm_node, ptr %43, i32 0, i32 0
  %45 = load i16, ptr %44, align 8, !tbaa !206
  %46 = zext i16 %45 to i32
  %47 = icmp eq i32 %46, 65
  br i1 %47, label %61, label %48

48:                                               ; preds = %42
  %49 = load ptr, ptr %4, align 8, !tbaa !128
  %50 = getelementptr inbounds nuw %struct.pm_node, ptr %49, i32 0, i32 0
  %51 = load i16, ptr %50, align 8, !tbaa !206
  %52 = zext i16 %51 to i32
  %53 = icmp eq i32 %52, 122
  br i1 %53, label %61, label %54

54:                                               ; preds = %48
  %55 = load ptr, ptr %4, align 8, !tbaa !128
  %56 = getelementptr inbounds nuw %struct.pm_node, ptr %55, i32 0, i32 1
  %57 = load i16, ptr %56, align 2, !tbaa !222
  %58 = zext i16 %57 to i32
  %59 = and i32 %58, 2
  %60 = icmp ne i32 %59, 0
  br i1 %60, label %63, label %61

61:                                               ; preds = %54, %48, %42, %25
  %62 = load ptr, ptr %3, align 8, !tbaa !338
  call void @pm_node_flag_unset(ptr noundef %62, i16 noundef zeroext 2)
  br label %63

63:                                               ; preds = %61, %54
  %64 = load ptr, ptr %4, align 8, !tbaa !128
  %65 = getelementptr inbounds nuw %struct.pm_node, ptr %64, i32 0, i32 0
  %66 = load i16, ptr %65, align 8, !tbaa !206
  %67 = zext i16 %66 to i32
  %68 = icmp eq i32 %67, 139
  br i1 %68, label %69, label %71

69:                                               ; preds = %63
  %70 = load ptr, ptr %3, align 8, !tbaa !338
  call void @pm_node_flag_set(ptr noundef %70, i16 noundef zeroext 4)
  br label %71

71:                                               ; preds = %69, %63
  ret void
}