; Function Attrs: inlinehint nounwind sspstrong uwtable
define internal fastcc void @pm_array_node_elements_append(ptr noundef nonnull %0, ptr noundef %1) unnamed_addr #11 {
  %3 = getelementptr inbounds nuw i8, ptr %0, i64 24
  %4 = load i64, ptr %3, align 8, !tbaa !287
  %.not = icmp eq i64 %4, 0
  br i1 %.not, label %5, label %12

5:                                                ; preds = %2
  %6 = getelementptr inbounds nuw i8, ptr %0, i64 48
  %7 = load ptr, ptr %6, align 8, !tbaa !290
  %.not15 = icmp eq ptr %7, null
  br i1 %.not15, label %8, label %12

8:                                                ; preds = %5
  %9 = getelementptr inbounds nuw i8, ptr %1, i64 8
  %10 = load ptr, ptr %9, align 8, !tbaa !131
  %11 = getelementptr inbounds nuw i8, ptr %0, i64 8
  store ptr %10, ptr %11, align 8, !tbaa !291
  br label %12

12:                                               ; preds = %8, %5, %2
  tail call void @pm_node_list_append(ptr noundef nonnull %3, ptr noundef %1) #31
  %13 = getelementptr inbounds nuw i8, ptr %1, i64 16
  %14 = load ptr, ptr %13, align 8, !tbaa !132
  %15 = getelementptr inbounds nuw i8, ptr %0, i64 16
  store ptr %14, ptr %15, align 8, !tbaa !292
  %16 = load i16, ptr %1, align 8, !tbaa !113
  switch i16 %16, label %17 [
    i16 6, label %21
    i16 65, label %21
    i16 122, label %21
  ]

17:                                               ; preds = %12
  %18 = getelementptr inbounds nuw i8, ptr %1, i64 2
  %19 = load i16, ptr %18, align 2, !tbaa !114
  %20 = and i16 %19, 2
  %.not16 = icmp eq i16 %20, 0
  br i1 %.not16, label %21, label %25

21:                                               ; preds = %12, %12, %12, %17
  %22 = getelementptr inbounds nuw i8, ptr %0, i64 2
  %23 = load i16, ptr %22, align 2, !tbaa !114
  %24 = and i16 %23, -3
  store i16 %24, ptr %22, align 2, !tbaa !114
  br label %25

25:                                               ; preds = %21, %17
  %26 = icmp eq i16 %16, 139
  br i1 %26, label %27, label %31

27:                                               ; preds = %25
  %28 = getelementptr inbounds nuw i8, ptr %0, i64 2
  %29 = load i16, ptr %28, align 2, !tbaa !114
  %30 = or i16 %29, 4
  store i16 %30, ptr %28, align 2, !tbaa !114
  br label %31

31:                                               ; preds = %27, %25
  ret void
}